target datalayout = "e-m:e-p270:32:32-p271:32:32-p272:64:64-i64:64-i128:128-f80:128-n8:16:32:64-S128"
target triple = "x86_64-pc-linux-gnu"

%struct.RFile = type { %struct.RBasic, ptr }
%struct.RBasic = type { i64, i64 }
%struct.rb_io = type { i64, ptr, i32, i32, i32, i32, i64, ptr, %struct.rb_io_internal_buffer, %struct.rb_io_internal_buffer, i64, %struct.rb_io_encoding, ptr, %struct.rb_io_internal_buffer, ptr, i64, i32, i32, i64, i64, i64 }
%struct.rb_io_encoding = type { ptr, ptr, i32, i64 }
%struct.rb_io_internal_buffer = type <{ ptr, i32, i32, i32 }>
%struct.nogvl_fchmod_data = type { i32, i32 }

@__func__.rb_file_chmod = private unnamed_addr constant [14 x i8] c"rb_file_chmod\00", align 1

; Function Attrs: nounwind sspstrong uwtable
define internal i32 @rb_fchmod(i32 noundef %0, i32 noundef %1) #0 {
  %3 = alloca i32, align 4
  %4 = alloca i32, align 4
  %5 = alloca %struct.nogvl_fchmod_data, align 4
  store i32 %0, ptr %3, align 4, !tbaa !11
  store i32 %1, ptr %4, align 4, !tbaa !11
  call void @llvm.lifetime.start.p0(i64 8, ptr %5) #24
  %6 = getelementptr inbounds nuw %struct.nogvl_fchmod_data, ptr %5, i32 0, i32 0
  %7 = load i32, ptr %3, align 4, !tbaa !11
  store i32 %7, ptr %6, align 4, !tbaa !250
  %8 = getelementptr inbounds nuw %struct.nogvl_fchmod_data, ptr %5, i32 0, i32 1
  %9 = load i32, ptr %4, align 4, !tbaa !11
  store i32 %9, ptr %8, align 4, !tbaa !252
  %10 = load i32, ptr %3, align 4, !tbaa !11
  %11 = call i64 @rb_thread_io_blocking_region(ptr noundef @io_blocking_fchmod, ptr noundef %5, i32 noundef %10)
  %12 = trunc i64 %11 to i32
  call void @llvm.lifetime.end.p0(i64 8, ptr %5) #24
  ret i32 %12
}

; Function Attrs: inlinehint nounwind sspstrong uwtable
define internal i32 @RB_NUM2UINT(i64 noundef %0) #8 {
  %2 = alloca i64, align 8
  %3 = alloca i64, align 8
  store i64 %0, ptr %2, align 8, !tbaa !7
  call void @llvm.lifetime.start.p0(i64 8, ptr %3) #24
  %4 = load i64, ptr %2, align 8, !tbaa !7
  %5 = call i64 @rb_num2uint(i64 noundef %4)
  store i64 %5, ptr %3, align 8, !tbaa !7
  %6 = load i64, ptr %3, align 8, !tbaa !7
  %7 = trunc i64 %6 to i32
  call void @llvm.lifetime.end.p0(i64 8, ptr %3) #24
  ret i32 %7
}

; Function Attrs: nounwind sspstrong uwtable
define internal i64 @rb_file_chmod(i64 noundef %0, i64 noundef %1) #0 {
  %3 = alloca i64, align 8
  %4 = alloca i64, align 8
  %5 = alloca ptr, align 8
  %6 = alloca i32, align 4
  %7 = alloca i32, align 4
  store i64 %0, ptr %3, align 8, !tbaa !7
  store i64 %1, ptr %4, align 8, !tbaa !7
  call void @llvm.lifetime.start.p0(i64 8, ptr %5) #24
  call void @llvm.lifetime.start.p0(i64 4, ptr %6) #24
  %8 = load i64, ptr %4, align 8, !tbaa !7
  %9 = call i32 @RB_NUM2UINT(i64 noundef %8)
  store i32 %9, ptr %6, align 4, !tbaa !11
  %10 = load i64, ptr %3, align 8, !tbaa !7
  %11 = call i64 @rb_io_taint_check(i64 noundef %10)
  %12 = inttoptr i64 %11 to ptr
  %13 = getelementptr inbounds nuw %struct.RFile, ptr %12, i32 0, i32 1
  %14 = load ptr, ptr %13, align 8, !tbaa !34
  store ptr %14, ptr %5, align 8, !tbaa !38
  call void @rb_io_check_closed(ptr noundef %14)
  %15 = load ptr, ptr %5, align 8, !tbaa !38
  %16 = getelementptr inbounds nuw %struct.rb_io, ptr %15, i32 0, i32 2
  %17 = load i32, ptr %16, align 8, !tbaa !59
  %18 = load i32, ptr %6, align 4, !tbaa !11
  %19 = call i32 @rb_fchmod(i32 noundef %17, i32 noundef %18)
  %20 = icmp eq i32 %19, -1
  br i1 %20, label %21, label %31

21:                                               ; preds = %2
  br label %22

22:                                               ; preds = %21
  call void @llvm.lifetime.start.p0(i64 4, ptr %7) #24
  %23 = call ptr @rb_errno_ptr()
  %24 = load i32, ptr %23, align 4, !tbaa !11
  store i32 %24, ptr %7, align 4, !tbaa !11
  %25 = load i32, ptr %7, align 4, !tbaa !11
  %26 = load ptr, ptr %5, align 8, !tbaa !38
  %27 = getelementptr inbounds nuw %struct.rb_io, ptr %26, i32 0, i32 6
  %28 = load i64, ptr %27, align 8, !tbaa !60
  call void @rb_syserr_fail_path_in(ptr noundef @__func__.rb_file_chmod, i32 noundef %25, i64 noundef %28) #28
  unreachable

29:                                               ; No predecessors!
  br label %30

30:                                               ; preds = %29
  br label %32

31:                                               ; preds = %2
  br label %32

32:                                               ; preds = %31, %30
  call void @llvm.lifetime.end.p0(i64 4, ptr %6) #24
  call void @llvm.lifetime.end.p0(i64 8, ptr %5) #24
  ret i64 1
}