; Function Attrs: nounwind sspstrong uwtable
define internal noundef i64 @rb_file_chmod(i64 noundef %0, i64 noundef %1) #0 {
  %3 = alloca %struct.nogvl_fchmod_data, align 4
  %4 = tail call i64 @rb_num2uint(i64 noundef %1) #22
  %5 = trunc i64 %4 to i32
  %6 = tail call i64 @rb_io_taint_check(i64 noundef %0) #22
  %7 = inttoptr i64 %6 to ptr
  %8 = getelementptr inbounds nuw i8, ptr %7, i64 16
  %9 = load ptr, ptr %8, align 8, !tbaa !33
  tail call void @rb_io_check_closed(ptr noundef %9) #22
  %10 = getelementptr inbounds nuw i8, ptr %9, i64 16
  %11 = load i32, ptr %10, align 8, !tbaa !36
  call void @llvm.lifetime.start.p0(i64 8, ptr nonnull %3) #22
  store i32 %11, ptr %3, align 4, !tbaa !267
  %12 = getelementptr inbounds nuw i8, ptr %3, i64 4
  store i32 %5, ptr %12, align 4, !tbaa !269
  %13 = call i64 @rb_thread_io_blocking_region(ptr noundef nonnull @io_blocking_fchmod, ptr noundef nonnull %3, i32 noundef %11) #22
  call void @llvm.lifetime.end.p0(i64 8, ptr nonnull %3) #22
  %14 = and i64 %13, 4294967295
  %15 = icmp eq i64 %14, 4294967295
  br i1 %15, label %16, label %21

16:                                               ; preds = %2
  %17 = call ptr @rb_errno_ptr() #22
  %18 = load i32, ptr %17, align 4, !tbaa !26
  %19 = getelementptr inbounds nuw i8, ptr %9, i64 32
  %20 = load i64, ptr %19, align 8, !tbaa !74
  call void @rb_syserr_fail_path_in(ptr noundef nonnull @__func__.rb_file_chmod, i32 noundef %18, i64 noundef %20) #24
  unreachable

21:                                               ; preds = %2
  ret i64 1
}